target datalayout = "e-m:e-p270:32:32-p271:32:32-p272:64:64-i64:64-i128:128-f80:128-n8:16:32:64-S128"
target triple = "x86_64-unknown-linux-gnu"

%struct.sdshdr8 = type { i8, i8, i8, [0 x i8] }
%struct.sdshdr16 = type <{ i16, i16, i8, [0 x i8] }>
%struct.sdshdr32 = type <{ i32, i32, i8, [0 x i8] }>
%struct.sdshdr64 = type <{ i64, i64, i8, [0 x i8] }>

; Function Attrs: nounwind uwtable
define internal i64 @sdslen(ptr noundef %s) #0 {
entry:
  %retval = alloca i64, align 8
  %s.addr = alloca ptr, align 8
  %flags = alloca i8, align 1
  store ptr %s, ptr %s.addr, align 8
  %0 = load ptr, ptr %s.addr, align 8
  %arrayidx = getelementptr inbounds i8, ptr %0, i64 -1
  %1 = load i8, ptr %arrayidx, align 1
  store i8 %1, ptr %flags, align 1
  %2 = load i8, ptr %flags, align 1
  %conv = zext i8 %2 to i32
  %and = and i32 %conv, 7
  switch i32 %and, label %sw.epilog [
    i32 0, label %sw.bb
    i32 1, label %sw.bb3
    i32 2, label %sw.bb5
    i32 3, label %sw.bb9
    i32 4, label %sw.bb13
  ]

sw.bb:                                            ; preds = %entry
  %3 = load i8, ptr %flags, align 1
  %conv1 = zext i8 %3 to i32
  %shr = ashr i32 %conv1, 3
  %conv2 = sext i32 %shr to i64
  store i64 %conv2, ptr %retval, align 8
  br label %return

sw.bb3:                                           ; preds = %entry
  %4 = load ptr, ptr %s.addr, align 8
  %add.ptr = getelementptr inbounds i8, ptr %4, i64 -3
  %len = getelementptr inbounds %struct.sdshdr8, ptr %add.ptr, i32 0, i32 0
  %5 = load i8, ptr %len, align 1
  %conv4 = zext i8 %5 to i64
  store i64 %conv4, ptr %retval, align 8
  br label %return

sw.bb5:                                           ; preds = %entry
  %6 = load ptr, ptr %s.addr, align 8
  %add.ptr6 = getelementptr inbounds i8, ptr %6, i64 -5
  %len7 = getelementptr inbounds %struct.sdshdr16, ptr %add.ptr6, i32 0, i32 0
  %7 = load i16, ptr %len7, align 1
  %conv8 = zext i16 %7 to i64
  store i64 %conv8, ptr %retval, align 8
  br label %return

sw.bb9:                                           ; preds = %entry
  %8 = load ptr, ptr %s.addr, align 8
  %add.ptr10 = getelementptr inbounds i8, ptr %8, i64 -9
  %len11 = getelementptr inbounds %struct.sdshdr32, ptr %add.ptr10, i32 0, i32 0
  %9 = load i32, ptr %len11, align 1
  %conv12 = zext i32 %9 to i64
  store i64 %conv12, ptr %retval, align 8
  br label %return

sw.bb13:                                          ; preds = %entry
  %10 = load ptr, ptr %s.addr, align 8
  %add.ptr14 = getelementptr inbounds i8, ptr %10, i64 -17
  %len15 = getelementptr inbounds %struct.sdshdr64, ptr %add.ptr14, i32 0, i32 0
  %11 = load i64, ptr %len15, align 1
  store i64 %11, ptr %retval, align 8
  br label %return

sw.epilog:                                        ; preds = %entry
  store i64 0, ptr %retval, align 8
  br label %return

return:                                           ; preds = %sw.epilog, %sw.bb13, %sw.bb9, %sw.bb5, %sw.bb3, %sw.bb
  %12 = load i64, ptr %retval, align 8
  ret i64 %12
}

; Function Attrs: nounwind uwtable
define dso_local ptr @sdsmapchars(ptr noundef %s, ptr noundef %from, ptr noundef %to, i64 noundef %setlen) #0 {
entry:
  %s.addr = alloca ptr, align 8
  %from.addr = alloca ptr, align 8
  %to.addr = alloca ptr, align 8
  %setlen.addr = alloca i64, align 8
  %j = alloca i64, align 8
  %i = alloca i64, align 8
  %l = alloca i64, align 8
  store ptr %s, ptr %s.addr, align 8
  store ptr %from, ptr %from.addr, align 8
  store ptr %to, ptr %to.addr, align 8
  store i64 %setlen, ptr %setlen.addr, align 8
  %0 = load ptr, ptr %s.addr, align 8
  %call = call i64 @sdslen(ptr noundef %0)
  store i64 %call, ptr %l, align 8
  store i64 0, ptr %j, align 8
  br label %for.cond

for.cond:                                         ; preds = %for.inc10, %entry
  %1 = load i64, ptr %j, align 8
  %2 = load i64, ptr %l, align 8
  %cmp = icmp ult i64 %1, %2
  br i1 %cmp, label %for.body, label %for.end12

for.body:                                         ; preds = %for.cond
  store i64 0, ptr %i, align 8
  br label %for.cond1

for.cond1:                                        ; preds = %for.inc, %for.body
  %3 = load i64, ptr %i, align 8
  %4 = load i64, ptr %setlen.addr, align 8
  %cmp2 = icmp ult i64 %3, %4
  br i1 %cmp2, label %for.body3, label %for.end

for.body3:                                        ; preds = %for.cond1
  %5 = load ptr, ptr %s.addr, align 8
  %6 = load i64, ptr %j, align 8
  %arrayidx = getelementptr inbounds i8, ptr %5, i64 %6
  %7 = load i8, ptr %arrayidx, align 1
  %conv = sext i8 %7 to i32
  %8 = load ptr, ptr %from.addr, align 8
  %9 = load i64, ptr %i, align 8
  %arrayidx4 = getelementptr inbounds i8, ptr %8, i64 %9
  %10 = load i8, ptr %arrayidx4, align 1
  %conv5 = sext i8 %10 to i32
  %cmp6 = icmp eq i32 %conv, %conv5
  br i1 %cmp6, label %if.then, label %if.end

if.then:                                          ; preds = %for.body3
  %11 = load ptr, ptr %to.addr, align 8
  %12 = load i64, ptr %i, align 8
  %arrayidx8 = getelementptr inbounds i8, ptr %11, i64 %12
  %13 = load i8, ptr %arrayidx8, align 1
  %14 = load ptr, ptr %s.addr, align 8
  %15 = load i64, ptr %j, align 8
  %arrayidx9 = getelementptr inbounds i8, ptr %14, i64 %15
  store i8 %13, ptr %arrayidx9, align 1
  br label %for.end

if.end:                                           ; preds = %for.body3
  br label %for.inc

for.inc:                                          ; preds = %if.end
  %16 = load i64, ptr %i, align 8
  %inc = add i64 %16, 1
  store i64 %inc, ptr %i, align 8
  br label %for.cond1, !llvm.loop !19

for.end:                                          ; preds = %if.then, %for.cond1
  br label %for.inc10

for.inc10:                                        ; preds = %for.end
  %17 = load i64, ptr %j, align 8
  %inc11 = add i64 %17, 1
  store i64 %inc11, ptr %j, align 8
  br label %for.cond, !llvm.loop !20

for.end12:                                        ; preds = %for.cond
  %18 = load ptr, ptr %s.addr, align 8
  ret ptr %18
}