; Function Attrs: nofree norecurse nosync nounwind memory(argmem: readwrite) uwtable
define dso_local noundef ptr @sdsmapchars(ptr noundef returned %s, ptr nocapture noundef readonly %from, ptr nocapture noundef readonly %to, i64 noundef %setlen) local_unnamed_addr #21 {
entry:
  %arrayidx.i = getelementptr inbounds i8, ptr %s, i64 -1
  %0 = load i8, ptr %arrayidx.i, align 1
  %conv.i = zext i8 %0 to i32
  %and.i = and i32 %conv.i, 7
  switch i32 %and.i, label %for.end12 [
    i32 0, label %sw.bb.i
    i32 1, label %sw.bb3.i
    i32 2, label %sw.bb5.i
    i32 3, label %sw.bb9.i
    i32 4, label %sw.bb13.i
  ]

sw.bb.i:                                          ; preds = %entry
  %shr.i = lshr i32 %conv.i, 3
  %conv2.i = zext nneg i32 %shr.i to i64
  br label %sdslen.exit

sw.bb3.i:                                         ; preds = %entry
  %add.ptr.i = getelementptr inbounds i8, ptr %s, i64 -3
  %1 = load i8, ptr %add.ptr.i, align 1
  %conv4.i = zext i8 %1 to i64
  br label %sdslen.exit

sw.bb5.i:                                         ; preds = %entry
  %add.ptr6.i = getelementptr inbounds i8, ptr %s, i64 -5
  %2 = load i16, ptr %add.ptr6.i, align 1
  %conv8.i = zext i16 %2 to i64
  br label %sdslen.exit

sw.bb9.i:                                         ; preds = %entry
  %add.ptr10.i = getelementptr inbounds i8, ptr %s, i64 -9
  %3 = load i32, ptr %add.ptr10.i, align 1
  %conv12.i = zext i32 %3 to i64
  br label %sdslen.exit

sw.bb13.i:                                        ; preds = %entry
  %add.ptr14.i = getelementptr inbounds i8, ptr %s, i64 -17
  %4 = load i64, ptr %add.ptr14.i, align 1
  br label %sdslen.exit

sdslen.exit:                                      ; preds = %sw.bb.i, %sw.bb3.i, %sw.bb5.i, %sw.bb9.i, %sw.bb13.i
  %retval.0.i = phi i64 [ %4, %sw.bb13.i ], [ %conv12.i, %sw.bb9.i ], [ %conv8.i, %sw.bb5.i ], [ %conv4.i, %sw.bb3.i ], [ %conv2.i, %sw.bb.i ]
  %cmp13.not = icmp eq i64 %retval.0.i, 0
  %cmp211.not = icmp eq i64 %setlen, 0
  %or.cond = or i1 %cmp13.not, %cmp211.not
  br i1 %or.cond, label %for.end12, label %for.cond1.preheader.us

for.cond1.preheader.us:                           ; preds = %sdslen.exit, %for.inc10.us
  %j.014.us = phi i64 [ %inc11.us, %for.inc10.us ], [ 0, %sdslen.exit ]
  %arrayidx.us = getelementptr inbounds i8, ptr %s, i64 %j.014.us
  %5 = load i8, ptr %arrayidx.us, align 1
  br label %for.body3.us

for.body3.us:                                     ; preds = %for.cond1.preheader.us, %for.inc.us
  %i.012.us = phi i64 [ 0, %for.cond1.preheader.us ], [ %inc.us, %for.inc.us ]
  %arrayidx4.us = getelementptr inbounds i8, ptr %from, i64 %i.012.us
  %6 = load i8, ptr %arrayidx4.us, align 1
  %cmp6.us = icmp eq i8 %5, %6
  br i1 %cmp6.us, label %if.then.us, label %for.inc.us

for.inc.us:                                       ; preds = %for.body3.us
  %inc.us = add nuw i64 %i.012.us, 1
  %exitcond.not = icmp eq i64 %inc.us, %setlen
  br i1 %exitcond.not, label %for.inc10.us, label %for.body3.us, !llvm.loop !20

if.then.us:                                       ; preds = %for.body3.us
  %arrayidx8.us = getelementptr inbounds i8, ptr %to, i64 %i.012.us
  %7 = load i8, ptr %arrayidx8.us, align 1
  store i8 %7, ptr %arrayidx.us, align 1
  br label %for.inc10.us

for.inc10.us:                                     ; preds = %for.inc.us, %if.then.us
  %inc11.us = add nuw i64 %j.014.us, 1
  %exitcond18.not = icmp eq i64 %inc11.us, %retval.0.i
  br i1 %exitcond18.not, label %for.end12, label %for.cond1.preheader.us, !llvm.loop !21

for.end12:                                        ; preds = %for.inc10.us, %entry, %sdslen.exit
  ret ptr %s
}